; Function Attrs: mustprogress uwtable
define void @_ZN17grpc_event_engine12experimental16PosixEventEngine3RunEPNS0_11EventEngine7ClosureE(ptr nocapture noundef nonnull readonly align 8 dereferenceable(152) %this, ptr noundef %closure) unnamed_addr #3 align 2 {
entry:
  %executor_ = getelementptr inbounds i8, ptr %this, i64 104
  %0 = load ptr, ptr %executor_, align 8
  %vtable = load ptr, ptr %0, align 8
  %vfn = getelementptr inbounds i8, ptr %vtable, i64 56
  %1 = load ptr, ptr %vfn, align 8
  tail call void %1(ptr noundef nonnull align 8 dereferenceable(8) %0, ptr noundef %closure)
  ret void
}